ARM GAS  /tmp/ccTGiOck.s 			page 1


   1              		.cpu cortex-m3
   2              		.eabi_attribute 20, 1
   3              		.eabi_attribute 21, 1
   4              		.eabi_attribute 23, 3
   5              		.eabi_attribute 24, 1
   6              		.eabi_attribute 25, 1
   7              		.eabi_attribute 26, 1
   8              		.eabi_attribute 30, 1
   9              		.eabi_attribute 34, 1
  10              		.eabi_attribute 18, 4
  11              		.file	"piezo_driver.c"
  12              		.text
  13              	.Ltext0:
  14              		.cfi_sections	.debug_frame
  15              		.global	__aeabi_fdiv
  16              		.global	__aeabi_fadd
  17              		.global	__aeabi_f2uiz
  18              		.section	.text.setReload,"ax",%progbits
  19              		.align	1
  20              		.arch armv7-m
  21              		.syntax unified
  22              		.thumb
  23              		.thumb_func
  24              		.fpu softvfp
  26              	setReload:
  27              	.LVL0:
  28              	.LFB69:
  29              		.file 1 "Src/piezo_driver.c"
   1:Src/piezo_driver.c **** #include "piezo_driver.h"
   2:Src/piezo_driver.c **** 
   3:Src/piezo_driver.c **** #define FREQ_SWEEP_RATE_PER_SEC 100.0f
   4:Src/piezo_driver.c **** #define SWEEP_START_FREQ 25000.0f
   5:Src/piezo_driver.c **** 
   6:Src/piezo_driver.c **** /* Private functions -------------------------------------------------------*/
   7:Src/piezo_driver.c **** static void startPwm(void);
   8:Src/piezo_driver.c **** static void stopPwm(void);
   9:Src/piezo_driver.c **** static void setReload(float frequency);
  10:Src/piezo_driver.c **** 
  11:Src/piezo_driver.c **** /* Imported variables ------------------------------------------------------*/
  12:Src/piezo_driver.c **** extern TIM_HandleTypeDef htim1;
  13:Src/piezo_driver.c **** 
  14:Src/piezo_driver.c **** /* Private variables -------------------------------------------------------*/
  15:Src/piezo_driver.c **** static Bool_t HBridgeEnabled = FALSE;
  16:Src/piezo_driver.c **** static float Frequency = DEFAULT_PWM_FREQ;
  17:Src/piezo_driver.c **** 
  18:Src/piezo_driver.c **** /* Exported functions ------------------------------------------------------*/
  19:Src/piezo_driver.c **** void Pd_CmdSignalGeneration(Bool_t enabled)
  20:Src/piezo_driver.c **** {
  21:Src/piezo_driver.c ****     if (enabled && !HBridgeEnabled)
  22:Src/piezo_driver.c ****     {
  23:Src/piezo_driver.c ****         setReload(Frequency);
  24:Src/piezo_driver.c ****         startPwm();
  25:Src/piezo_driver.c ****         HBridgeEnabled = TRUE;
  26:Src/piezo_driver.c ****     }
  27:Src/piezo_driver.c **** 
  28:Src/piezo_driver.c ****     if (!enabled && HBridgeEnabled)
  29:Src/piezo_driver.c ****     {
ARM GAS  /tmp/ccTGiOck.s 			page 2


  30:Src/piezo_driver.c ****         stopPwm();
  31:Src/piezo_driver.c ****         HBridgeEnabled = FALSE;
  32:Src/piezo_driver.c ****     }
  33:Src/piezo_driver.c **** }
  34:Src/piezo_driver.c **** 
  35:Src/piezo_driver.c **** /* Private functions -------------------------------------------------------*/
  36:Src/piezo_driver.c **** void startPwm(void)
  37:Src/piezo_driver.c **** {
  38:Src/piezo_driver.c ****     HAL_TIM_PWM_Start_IT(&htim1, TIM_CHANNEL_1);
  39:Src/piezo_driver.c ****     HAL_TIM_PWM_Start_IT(&htim1, TIM_CHANNEL_2);
  40:Src/piezo_driver.c ****     HAL_TIMEx_PWMN_Start_IT(&htim1, TIM_CHANNEL_1);
  41:Src/piezo_driver.c ****     HAL_TIMEx_PWMN_Start_IT(&htim1, TIM_CHANNEL_2);
  42:Src/piezo_driver.c **** }
  43:Src/piezo_driver.c **** 
  44:Src/piezo_driver.c **** void stopPwm(void)
  45:Src/piezo_driver.c **** {
  46:Src/piezo_driver.c ****     // Stop PWM generation.
  47:Src/piezo_driver.c ****     HAL_TIM_PWM_Stop_IT(&htim1, TIM_CHANNEL_1);
  48:Src/piezo_driver.c ****     HAL_TIM_PWM_Stop_IT(&htim1, TIM_CHANNEL_2);
  49:Src/piezo_driver.c ****     HAL_TIMEx_PWMN_Stop_IT(&htim1, TIM_CHANNEL_1);
  50:Src/piezo_driver.c ****     HAL_TIMEx_PWMN_Stop_IT(&htim1, TIM_CHANNEL_2);
  51:Src/piezo_driver.c **** }
  52:Src/piezo_driver.c **** 
  53:Src/piezo_driver.c **** void setReload(float frequency)
  54:Src/piezo_driver.c **** {
  30              		.loc 1 54 1 view -0
  31              		.cfi_startproc
  32              		@ args = 0, pretend = 0, frame = 0
  33              		@ frame_needed = 0, uses_anonymous_args = 0
  34              		.loc 1 54 1 is_stmt 0 view .LVU1
  35 0000 08B5     		push	{r3, lr}
  36              	.LCFI0:
  37              		.cfi_def_cfa_offset 8
  38              		.cfi_offset 3, -8
  39              		.cfi_offset 14, -4
  55:Src/piezo_driver.c ****     uint16_t reload;
  40              		.loc 1 55 5 is_stmt 1 view .LVU2
  56:Src/piezo_driver.c ****     reload = ((uint16_t)(((float)TIM1_CLOCK_FREQ) / frequency + 0.5f)) - 1;
  41              		.loc 1 56 5 view .LVU3
  42              		.loc 1 56 51 is_stmt 0 view .LVU4
  43 0002 0146     		mov	r1, r0
  44 0004 0A48     		ldr	r0, .L3
  45              	.LVL1:
  46              		.loc 1 56 51 view .LVU5
  47 0006 FFF7FEFF 		bl	__aeabi_fdiv
  48              	.LVL2:
  49              		.loc 1 56 63 view .LVU6
  50 000a 4FF07C51 		mov	r1, #1056964608
  51 000e FFF7FEFF 		bl	__aeabi_fadd
  52              	.LVL3:
  53              		.loc 1 56 15 view .LVU7
  54 0012 FFF7FEFF 		bl	__aeabi_f2uiz
  55              	.LVL4:
  56 0016 80B2     		uxth	r0, r0
  57              		.loc 1 56 12 view .LVU8
  58 0018 0138     		subs	r0, r0, #1
  59 001a 80B2     		uxth	r0, r0
ARM GAS  /tmp/ccTGiOck.s 			page 3


  60              	.LVL5:
  57:Src/piezo_driver.c **** 
  58:Src/piezo_driver.c ****     // Set compare and reload values.
  59:Src/piezo_driver.c ****     __HAL_TIM_SET_AUTORELOAD(&htim1, reload);
  61              		.loc 1 59 5 is_stmt 1 view .LVU9
  62              		.loc 1 59 5 view .LVU10
  63 001c 054A     		ldr	r2, .L3+4
  64 001e 1368     		ldr	r3, [r2]
  65 0020 D862     		str	r0, [r3, #44]
  66              		.loc 1 59 5 view .LVU11
  67 0022 D060     		str	r0, [r2, #12]
  60:Src/piezo_driver.c ****     __HAL_TIM_SET_COMPARE(&htim1, TIM_CHANNEL_1, (reload + 1) >> 1);
  68              		.loc 1 60 5 view .LVU12
  69 0024 0130     		adds	r0, r0, #1
  70              	.LVL6:
  71              		.loc 1 60 5 is_stmt 0 view .LVU13
  72 0026 4010     		asrs	r0, r0, #1
  73 0028 5863     		str	r0, [r3, #52]
  74              	.LVL7:
  61:Src/piezo_driver.c ****     __HAL_TIM_SET_COMPARE(&htim1, TIM_CHANNEL_2, (reload + 1) >> 1);
  75              		.loc 1 61 5 is_stmt 1 view .LVU14
  76 002a 9863     		str	r0, [r3, #56]
  62:Src/piezo_driver.c **** }...
  77              		.loc 1 62 1 is_stmt 0 view .LVU15
  78 002c 08BD     		pop	{r3, pc}
  79              	.L4:
  80 002e 00BF     		.align	2
  81              	.L3:
  82 0030 4054894C 		.word	1284068416
  83 0034 00000000 		.word	htim1
  84              		.cfi_endproc
  85              	.LFE69:
  87              		.section	.text.startPwm,"ax",%progbits
  88              		.align	1
  89              		.syntax unified
  90              		.thumb
  91              		.thumb_func
  92              		.fpu softvfp
  94              	startPwm:
  95              	.LFB67:
  37:Src/piezo_driver.c **** {
  96              		.loc 1 37 1 is_stmt 1 view -0
  97              		.cfi_startproc
  98              		@ args = 0, pretend = 0, frame = 0
  99              		@ frame_needed = 0, uses_anonymous_args = 0
 100 0000 10B5     		push	{r4, lr}
 101              	.LCFI1:
 102              		.cfi_def_cfa_offset 8
 103              		.cfi_offset 4, -8
 104              		.cfi_offset 14, -4
  38:Src/piezo_driver.c ****     HAL_TIM_PWM_Start_IT(&htim1, TIM_CHANNEL_1);
 105              		.loc 1 38 5 view .LVU17
 106 0002 094C     		ldr	r4, .L7
 107 0004 0021     		movs	r1, #0
 108 0006 2046     		mov	r0, r4
 109 0008 FFF7FEFF 		bl	HAL_TIM_PWM_Start_IT
 110              	.LVL8:
ARM GAS  /tmp/ccTGiOck.s 			page 4


  39:Src/piezo_driver.c ****     HAL_TIM_PWM_Start_IT(&htim1, TIM_CHANNEL_2);
 111              		.loc 1 39 5 view .LVU18
 112 000c 0421     		movs	r1, #4
 113 000e 2046     		mov	r0, r4
 114 0010 FFF7FEFF 		bl	HAL_TIM_PWM_Start_IT
 115              	.LVL9:
  40:Src/piezo_driver.c ****     HAL_TIMEx_PWMN_Start_IT(&htim1, TIM_CHANNEL_1);
 116              		.loc 1 40 5 view .LVU19
 117 0014 0021     		movs	r1, #0
 118 0016 2046     		mov	r0, r4
 119 0018 FFF7FEFF 		bl	HAL_TIMEx_PWMN_Start_IT
 120              	.LVL10:
  41:Src/piezo_driver.c ****     HAL_TIMEx_PWMN_Start_IT(&htim1, TIM_CHANNEL_2);
 121              		.loc 1 41 5 view .LVU20
 122 001c 0421     		movs	r1, #4
 123 001e 2046     		mov	r0, r4
 124 0020 FFF7FEFF 		bl	HAL_TIMEx_PWMN_Start_IT
 125              	.LVL11:
  42:Src/piezo_driver.c **** }
 126              		.loc 1 42 1 is_stmt 0 view .LVU21
 127 0024 10BD     		pop	{r4, pc}
 128              	.L8:
 129 0026 00BF     		.align	2
 130              	.L7:
 131 0028 00000000 		.word	htim1
 132              		.cfi_endproc
 133              	.LFE67:
 135              		.section	.text.stopPwm,"ax",%progbits
 136              		.align	1
 137              		.syntax unified
 138              		.thumb
 139              		.thumb_func
 140              		.fpu softvfp
 142              	stopPwm:
 143              	.LFB68:
  45:Src/piezo_driver.c **** {
 144              		.loc 1 45 1 is_stmt 1 view -0
 145              		.cfi_startproc
 146              		@ args = 0, pretend = 0, frame = 0
 147              		@ frame_needed = 0, uses_anonymous_args = 0
 148 0000 10B5     		push	{r4, lr}
 149              	.LCFI2:
 150              		.cfi_def_cfa_offset 8
 151              		.cfi_offset 4, -8
 152              		.cfi_offset 14, -4
  47:Src/piezo_driver.c ****     HAL_TIM_PWM_Stop_IT(&htim1, TIM_CHANNEL_1);
 153              		.loc 1 47 5 view .LVU23
 154 0002 094C     		ldr	r4, .L11
 155 0004 0021     		movs	r1, #0
 156 0006 2046     		mov	r0, r4
 157 0008 FFF7FEFF 		bl	HAL_TIM_PWM_Stop_IT
 158              	.LVL12:
  48:Src/piezo_driver.c ****     HAL_TIM_PWM_Stop_IT(&htim1, TIM_CHANNEL_2);
 159              		.loc 1 48 5 view .LVU24
 160 000c 0421     		movs	r1, #4
 161 000e 2046     		mov	r0, r4
 162 0010 FFF7FEFF 		bl	HAL_TIM_PWM_Stop_IT
ARM GAS  /tmp/ccTGiOck.s 			page 5


 163              	.LVL13:
  49:Src/piezo_driver.c ****     HAL_TIMEx_PWMN_Stop_IT(&htim1, TIM_CHANNEL_1);
 164              		.loc 1 49 5 view .LVU25
 165 0014 0021     		movs	r1, #0
 166 0016 2046     		mov	r0, r4
 167 0018 FFF7FEFF 		bl	HAL_TIMEx_PWMN_Stop_IT
 168              	.LVL14:
  50:Src/piezo_driver.c ****     HAL_TIMEx_PWMN_Stop_IT(&htim1, TIM_CHANNEL_2);
 169              		.loc 1 50 5 view .LVU26
 170 001c 0421     		movs	r1, #4
 171 001e 2046     		mov	r0, r4
 172 0020 FFF7FEFF 		bl	HAL_TIMEx_PWMN_Stop_IT
 173              	.LVL15:
  51:Src/piezo_driver.c **** }
 174              		.loc 1 51 1 is_stmt 0 view .LVU27
 175 0024 10BD     		pop	{r4, pc}
 176              	.L12:
 177 0026 00BF     		.align	2
 178              	.L11:
 179 0028 00000000 		.word	htim1
 180              		.cfi_endproc
 181              	.LFE68:
 183              		.section	.text.Pd_CmdSignalGeneration,"ax",%progbits
 184              		.align	1
 185              		.global	Pd_CmdSignalGeneration
 186              		.syntax unified
 187              		.thumb
 188              		.thumb_func
 189              		.fpu softvfp
 191              	Pd_CmdSignalGeneration:
 192              	.LVL16:
 193              	.LFB66:
  20:Src/piezo_driver.c **** {
 194              		.loc 1 20 1 is_stmt 1 view -0
 195              		.cfi_startproc
 196              		@ args = 0, pretend = 0, frame = 0
 197              		@ frame_needed = 0, uses_anonymous_args = 0
  20:Src/piezo_driver.c **** {
 198              		.loc 1 20 1 is_stmt 0 view .LVU29
 199 0000 10B5     		push	{r4, lr}
 200              	.LCFI3:
 201              		.cfi_def_cfa_offset 8
 202              		.cfi_offset 4, -8
 203              		.cfi_offset 14, -4
  21:Src/piezo_driver.c ****     if (enabled && !HBridgeEnabled)
 204              		.loc 1 21 5 is_stmt 1 view .LVU30
  21:Src/piezo_driver.c ****     if (enabled && !HBridgeEnabled)
 205              		.loc 1 21 8 is_stmt 0 view .LVU31
 206 0002 0446     		mov	r4, r0
 207 0004 10B1     		cbz	r0, .L14
  21:Src/piezo_driver.c ****     if (enabled && !HBridgeEnabled)
 208              		.loc 1 21 20 discriminator 1 view .LVU32
 209 0006 0B4B     		ldr	r3, .L19
 210 0008 1B78     		ldrb	r3, [r3]	@ zero_extendqisi2
  21:Src/piezo_driver.c ****     if (enabled && !HBridgeEnabled)
 211              		.loc 1 21 17 discriminator 1 view .LVU33
 212 000a 23B1     		cbz	r3, .L17
ARM GAS  /tmp/ccTGiOck.s 			page 6


 213              	.LVL17:
 214              	.L14:
  28:Src/piezo_driver.c ****     if (!enabled && HBridgeEnabled)
 215              		.loc 1 28 5 is_stmt 1 view .LVU34
  28:Src/piezo_driver.c ****     if (!enabled && HBridgeEnabled)
 216              		.loc 1 28 8 is_stmt 0 view .LVU35
 217 000c 14B9     		cbnz	r4, .L13
  28:Src/piezo_driver.c ****     if (!enabled && HBridgeEnabled)
 218              		.loc 1 28 18 discriminator 1 view .LVU36
 219 000e 094B     		ldr	r3, .L19
 220 0010 1B78     		ldrb	r3, [r3]	@ zero_extendqisi2
 221 0012 4BB9     		cbnz	r3, .L18
 222              	.L13:
  33:Src/piezo_driver.c **** }
 223              		.loc 1 33 1 view .LVU37
 224 0014 10BD     		pop	{r4, pc}
 225              	.LVL18:
 226              	.L17:
  23:Src/piezo_driver.c ****         setReload(Frequency);
 227              		.loc 1 23 9 is_stmt 1 view .LVU38
 228 0016 0848     		ldr	r0, .L19+4
 229              	.LVL19:
  23:Src/piezo_driver.c ****         setReload(Frequency);
 230              		.loc 1 23 9 is_stmt 0 view .LVU39
 231 0018 FFF7FEFF 		bl	setReload
 232              	.LVL20:
  24:Src/piezo_driver.c ****         startPwm();
 233              		.loc 1 24 9 is_stmt 1 view .LVU40
 234 001c FFF7FEFF 		bl	startPwm
 235              	.LVL21:
  25:Src/piezo_driver.c ****         HBridgeEnabled = TRUE;
 236              		.loc 1 25 9 view .LVU41
  25:Src/piezo_driver.c ****         HBridgeEnabled = TRUE;
 237              		.loc 1 25 24 is_stmt 0 view .LVU42
 238 0020 044B     		ldr	r3, .L19
 239 0022 0122     		movs	r2, #1
 240 0024 1A70     		strb	r2, [r3]
 241 0026 F1E7     		b	.L14
 242              	.L18:
  30:Src/piezo_driver.c ****         stopPwm();
 243              		.loc 1 30 9 is_stmt 1 view .LVU43
 244 0028 FFF7FEFF 		bl	stopPwm
 245              	.LVL22:
  31:Src/piezo_driver.c ****         HBridgeEnabled = FALSE;
 246              		.loc 1 31 9 view .LVU44
  31:Src/piezo_driver.c ****         HBridgeEnabled = FALSE;
 247              		.loc 1 31 24 is_stmt 0 view .LVU45
 248 002c 014B     		ldr	r3, .L19
 249 002e 0022     		movs	r2, #0
 250 0030 1A70     		strb	r2, [r3]
  33:Src/piezo_driver.c **** }
 251              		.loc 1 33 1 view .LVU46
 252 0032 EFE7     		b	.L13
 253              	.L20:
 254              		.align	2
 255              	.L19:
 256 0034 00000000 		.word	.LANCHOR0
ARM GAS  /tmp/ccTGiOck.s 			page 7


 257 0038 004CB846 		.word	1186483200
 258              		.cfi_endproc
 259              	.LFE66:
 261              		.section	.bss.HBridgeEnabled,"aw",%nobits
 262              		.set	.LANCHOR0,. + 0
 265              	HBridgeEnabled:
 266 0000 00       		.space	1
 267              		.text
 268              	.Letext0:
 269              		.file 2 "/home/onur/STM32Toolchain/gcc-arm-none-eabi-8-2018-q4-major/arm-none-eabi/include/machine
 270              		.file 3 "/home/onur/STM32Toolchain/gcc-arm-none-eabi-8-2018-q4-major/arm-none-eabi/include/sys/_st
 271              		.file 4 "Drivers/CMSIS/Include/core_cm3.h"
 272              		.file 5 "Drivers/CMSIS/Device/ST/STM32F1xx/Include/system_stm32f1xx.h"
 273              		.file 6 "Drivers/CMSIS/Device/ST/STM32F1xx/Include/stm32f103xb.h"
 274              		.file 7 "/home/onur/STM32Toolchain/gcc-arm-none-eabi-8-2018-q4-major/arm-none-eabi/include/sys/loc
 275              		.file 8 "/home/onur/STM32Toolchain/gcc-arm-none-eabi-8-2018-q4-major/arm-none-eabi/include/sys/_ty
 276              		.file 9 "/home/onur/STM32Toolchain/gcc-arm-none-eabi-8-2018-q4-major/lib/gcc/arm-none-eabi/8.2.1/i
 277              		.file 10 "/home/onur/STM32Toolchain/gcc-arm-none-eabi-8-2018-q4-major/arm-none-eabi/include/sys/re
 278              		.file 11 "Drivers/STM32F1xx_HAL_Driver/Inc/stm32f1xx_hal_def.h"
 279              		.file 12 "Drivers/STM32F1xx_HAL_Driver/Inc/stm32f1xx_hal_dma.h"
 280              		.file 13 "Drivers/STM32F1xx_HAL_Driver/Inc/stm32f1xx_hal_tim.h"
 281              		.file 14 "Drivers/STM32F1xx_HAL_Driver/Inc/stm32f1xx_hal.h"
 282              		.file 15 "Inc/global.h"
 283              		.file 16 "Drivers/STM32F1xx_HAL_Driver/Inc/stm32f1xx_hal_tim_ex.h"
ARM GAS  /tmp/ccTGiOck.s 			page 8

